target datalayout = "e-m:e-p270:32:32-p271:32:32-p272:64:64-i64:64-i128:128-f80:128-n8:16:32:64-S128"
target triple = "x86_64-pc-linux-gnu"

%"class.icu_77::double_conversion::Bignum" = type { i16, i16, [128 x i32] }
%"class.icu_77::double_conversion::Vector" = type <{ ptr, i32, [4 x i8] }>

; Function Attrs: mustprogress nounwind uwtable
define noundef nonnull align 4 dereferenceable(4) ptr @_ZN6icu_7717double_conversion6Bignum8RawBigitEi(ptr noundef nonnull align 4 dereferenceable(516) %0, i32 noundef %1) #0 align 2 {
  %3 = alloca ptr, align 8
  %4 = alloca i32, align 4
  store ptr %0, ptr %3, align 8, !tbaa !3
  store i32 %1, ptr %4, align 4, !tbaa !8
  %5 = load ptr, ptr %3, align 8
  %6 = getelementptr inbounds nuw %"class.icu_77::double_conversion::Bignum", ptr %5, i32 0, i32 2
  %7 = load i32, ptr %4, align 4, !tbaa !8
  %8 = sext i32 %7 to i64
  %9 = getelementptr inbounds [128 x i32], ptr %6, i64 0, i64 %8
  ret ptr %9
}

; Function Attrs: mustprogress uwtable
define void @_ZN6icu_7717double_conversion6Bignum12AssignUInt64Em(ptr noundef nonnull align 4 dereferenceable(516) %0, i64 noundef %1) #1 align 2 {
  %3 = alloca ptr, align 8
  %4 = alloca i64, align 8
  %5 = alloca i32, align 4
  store ptr %0, ptr %3, align 8, !tbaa !3
  store i64 %1, ptr %4, align 8, !tbaa !15
  %6 = load ptr, ptr %3, align 8
  call void @_ZN6icu_7717double_conversion6Bignum4ZeroEv(ptr noundef nonnull align 4 dereferenceable(516) %6)
  call void @llvm.lifetime.start.p0(i64 4, ptr %5) #6
  store i32 0, ptr %5, align 4, !tbaa !8
  br label %7

7:                                                ; preds = %22, %2
  %8 = load i64, ptr %4, align 8, !tbaa !15
  %9 = icmp ugt i64 %8, 0
  br i1 %9, label %11, label %10

10:                                               ; preds = %7
  call void @llvm.lifetime.end.p0(i64 4, ptr %5) #6
  br label %25

11:                                               ; preds = %7
  %12 = load i64, ptr %4, align 8, !tbaa !15
  %13 = and i64 %12, 268435455
  %14 = trunc i64 %13 to i32
  %15 = load i32, ptr %5, align 4, !tbaa !8
  %16 = call noundef nonnull align 4 dereferenceable(4) ptr @_ZN6icu_7717double_conversion6Bignum8RawBigitEi(ptr noundef nonnull align 4 dereferenceable(516) %6, i32 noundef %15)
  store i32 %14, ptr %16, align 4, !tbaa !8
  %17 = load i64, ptr %4, align 8, !tbaa !15
  %18 = lshr i64 %17, 28
  store i64 %18, ptr %4, align 8, !tbaa !15
  %19 = getelementptr inbounds nuw %"class.icu_77::double_conversion::Bignum", ptr %6, i32 0, i32 0
  %20 = load i16, ptr %19, align 4, !tbaa !12
  %21 = add i16 %20, 1
  store i16 %21, ptr %19, align 4, !tbaa !12
  br label %22

22:                                               ; preds = %11
  %23 = load i32, ptr %5, align 4, !tbaa !8
  %24 = add nsw i32 %23, 1
  store i32 %24, ptr %5, align 4, !tbaa !8
  br label %7, !llvm.loop !17

25:                                               ; preds = %10
  ret void
}

; Function Attrs: mustprogress nounwind uwtable
define linkonce_odr void @_ZN6icu_7717double_conversion6BignumC2Ev(ptr noundef nonnull align 4 dereferenceable(516) %0) unnamed_addr #0 comdat align 2 {
  %2 = alloca ptr, align 8
  store ptr %0, ptr %2, align 8, !tbaa !3
  %3 = load ptr, ptr %2, align 8
  %4 = getelementptr inbounds nuw %"class.icu_77::double_conversion::Bignum", ptr %3, i32 0, i32 0
  store i16 0, ptr %4, align 4, !tbaa !12
  %5 = getelementptr inbounds nuw %"class.icu_77::double_conversion::Bignum", ptr %3, i32 0, i32 1
  store i16 0, ptr %5, align 2, !tbaa !14
  ret void
}

; Function Attrs: mustprogress nounwind uwtable
define linkonce_odr noundef nonnull align 1 dereferenceable(1) ptr @_ZNK6icu_7717double_conversion6VectorIKcEixEi(ptr noundef nonnull align 8 dereferenceable(12) %0, i32 noundef %1) #0 comdat align 2 {
  %3 = alloca ptr, align 8
  %4 = alloca i32, align 4
  store ptr %0, ptr %3, align 8, !tbaa !24
  store i32 %1, ptr %4, align 4, !tbaa !8
  %5 = load ptr, ptr %3, align 8
  %6 = getelementptr inbounds nuw %"class.icu_77::double_conversion::Vector", ptr %5, i32 0, i32 0
  %7 = load ptr, ptr %6, align 8, !tbaa !34
  %8 = load i32, ptr %4, align 4, !tbaa !8
  %9 = sext i32 %8 to i64
  %10 = getelementptr inbounds i8, ptr %7, i64 %9
  ret ptr %10
}

; Function Attrs: mustprogress nounwind uwtable
define void @_ZN6icu_7717double_conversion6Bignum5ClampEv(ptr noundef nonnull align 4 dereferenceable(516) %0) #0 align 2 {
  %2 = alloca ptr, align 8
  store ptr %0, ptr %2, align 8, !tbaa !3
  %3 = load ptr, ptr %2, align 8
  br label %4

4:                                                ; preds = %19, %1
  %5 = getelementptr inbounds nuw %"class.icu_77::double_conversion::Bignum", ptr %3, i32 0, i32 0
  %6 = load i16, ptr %5, align 4, !tbaa !12
  %7 = sext i16 %6 to i32
  %8 = icmp sgt i32 %7, 0
  br i1 %8, label %9, label %17

9:                                                ; preds = %4
  %10 = getelementptr inbounds nuw %"class.icu_77::double_conversion::Bignum", ptr %3, i32 0, i32 0
  %11 = load i16, ptr %10, align 4, !tbaa !12
  %12 = sext i16 %11 to i32
  %13 = sub nsw i32 %12, 1
  %14 = call noundef nonnull align 4 dereferenceable(4) ptr @_ZN6icu_7717double_conversion6Bignum8RawBigitEi(ptr noundef nonnull align 4 dereferenceable(516) %3, i32 noundef %13)
  %15 = load i32, ptr %14, align 4, !tbaa !8
  %16 = icmp eq i32 %15, 0
  br label %17

17:                                               ; preds = %9, %4
  %18 = phi i1 [ false, %4 ], [ %16, %9 ]
  br i1 %18, label %19, label %23

19:                                               ; preds = %17
  %20 = getelementptr inbounds nuw %"class.icu_77::double_conversion::Bignum", ptr %3, i32 0, i32 0
  %21 = load i16, ptr %20, align 4, !tbaa !12
  %22 = add i16 %21, -1
  store i16 %22, ptr %20, align 4, !tbaa !12
  br label %4, !llvm.loop !32

23:                                               ; preds = %17
  %24 = getelementptr inbounds nuw %"class.icu_77::double_conversion::Bignum", ptr %3, i32 0, i32 0
  %25 = load i16, ptr %24, align 4, !tbaa !12
  %26 = sext i16 %25 to i32
  %27 = icmp eq i32 %26, 0
  br i1 %27, label %28, label %30

28:                                               ; preds = %23
  %29 = getelementptr inbounds nuw %"class.icu_77::double_conversion::Bignum", ptr %3, i32 0, i32 1
  store i16 0, ptr %29, align 2, !tbaa !14
  br label %30

30:                                               ; preds = %28, %23
  ret void
}

; Function Attrs: mustprogress uwtable
define void @_ZN6icu_7717double_conversion6Bignum9AddUInt64Em(ptr noundef nonnull align 4 dereferenceable(516) %0, i64 noundef %1) #1 align 2 {
  %3 = alloca ptr, align 8
  %4 = alloca i64, align 8
  %5 = alloca %"class.icu_77::double_conversion::Bignum", align 4
  store ptr %0, ptr %3, align 8, !tbaa !3
  store i64 %1, ptr %4, align 8, !tbaa !15
  %6 = load ptr, ptr %3, align 8
  %7 = load i64, ptr %4, align 8, !tbaa !15
  %8 = icmp eq i64 %7, 0
  br i1 %8, label %9, label %10

9:                                                ; preds = %2
  br label %12

10:                                               ; preds = %2
  call void @llvm.lifetime.start.p0(i64 516, ptr %5) #6
  call void @_ZN6icu_7717double_conversion6BignumC2Ev(ptr noundef nonnull align 4 dereferenceable(516) %5)
  %11 = load i64, ptr %4, align 8, !tbaa !15
  call void @_ZN6icu_7717double_conversion6Bignum12AssignUInt64Em(ptr noundef nonnull align 4 dereferenceable(516) %5, i64 noundef %11)
  call void @_ZN6icu_7717double_conversion6Bignum9AddBignumERKS1_(ptr noundef nonnull align 4 dereferenceable(516) %6, ptr noundef nonnull align 4 dereferenceable(516) %5)
  call void @llvm.lifetime.end.p0(i64 516, ptr %5) #6
  br label %12

12:                                               ; preds = %10, %9
  ret void
}

; Function Attrs: mustprogress uwtable
define internal noundef i64 @_ZN6icu_7717double_conversionL10ReadUInt64ENS0_6VectorIKcEEii(ptr %0, i32 %1, i32 noundef %2, i32 noundef %3) #1 {
  %5 = alloca %"class.icu_77::double_conversion::Vector", align 8
  %6 = alloca i32, align 4
  %7 = alloca i32, align 4
  %8 = alloca i64, align 8
  %9 = alloca i32, align 4
  %10 = alloca i32, align 4
  %11 = getelementptr inbounds nuw { ptr, i32 }, ptr %5, i32 0, i32 0
  store ptr %0, ptr %11, align 8
  %12 = getelementptr inbounds nuw { ptr, i32 }, ptr %5, i32 0, i32 1
  store i32 %1, ptr %12, align 8
  store i32 %2, ptr %6, align 4, !tbaa !8
  store i32 %3, ptr %7, align 4, !tbaa !8
  call void @llvm.lifetime.start.p0(i64 8, ptr %8) #6
  store i64 0, ptr %8, align 8, !tbaa !15
  call void @llvm.lifetime.start.p0(i64 4, ptr %9) #6
  %13 = load i32, ptr %6, align 4, !tbaa !8
  store i32 %13, ptr %9, align 4, !tbaa !8
  br label %14

14:                                               ; preds = %32, %4
  %15 = load i32, ptr %9, align 4, !tbaa !8
  %16 = load i32, ptr %6, align 4, !tbaa !8
  %17 = load i32, ptr %7, align 4, !tbaa !8
  %18 = add nsw i32 %16, %17
  %19 = icmp slt i32 %15, %18
  br i1 %19, label %21, label %20

20:                                               ; preds = %14
  call void @llvm.lifetime.end.p0(i64 4, ptr %9) #6
  br label %35

21:                                               ; preds = %14
  call void @llvm.lifetime.start.p0(i64 4, ptr %10) #6
  %22 = load i32, ptr %9, align 4, !tbaa !8
  %23 = call noundef nonnull align 1 dereferenceable(1) ptr @_ZNK6icu_7717double_conversion6VectorIKcEixEi(ptr noundef nonnull align 8 dereferenceable(12) %5, i32 noundef %22)
  %24 = load i8, ptr %23, align 1, !tbaa !28
  %25 = sext i8 %24 to i32
  %26 = sub nsw i32 %25, 48
  store i32 %26, ptr %10, align 4, !tbaa !8
  %27 = load i64, ptr %8, align 8, !tbaa !15
  %28 = mul i64 %27, 10
  %29 = load i32, ptr %10, align 4, !tbaa !8
  %30 = sext i32 %29 to i64
  %31 = add i64 %28, %30
  store i64 %31, ptr %8, align 8, !tbaa !15
  call void @llvm.lifetime.end.p0(i64 4, ptr %10) #6
  br label %32

32:                                               ; preds = %21
  %33 = load i32, ptr %9, align 4, !tbaa !8
  %34 = add nsw i32 %33, 1
  store i32 %34, ptr %9, align 4, !tbaa !8
  br label %14, !llvm.loop !29

35:                                               ; preds = %20
  %36 = load i64, ptr %8, align 8, !tbaa !15
  call void @llvm.lifetime.end.p0(i64 8, ptr %8) #6
  ret i64 %36
}

; Function Attrs: mustprogress nounwind uwtable
define linkonce_odr noundef i32 @_ZNK6icu_7717double_conversion6VectorIKcE6lengthEv(ptr noundef nonnull align 8 dereferenceable(12) %0) #0 comdat align 2 {
  %2 = alloca ptr, align 8
  store ptr %0, ptr %2, align 8, !tbaa !24
  %3 = load ptr, ptr %2, align 8
  %4 = getelementptr inbounds nuw %"class.icu_77::double_conversion::Vector", ptr %3, i32 0, i32 1
  %5 = load i32, ptr %4, align 8, !tbaa !26
  ret i32 %5
}

; Function Attrs: mustprogress nounwind uwtable
define linkonce_odr void @_ZN6icu_7717double_conversion6Bignum4ZeroEv(ptr noundef nonnull align 4 dereferenceable(516) %0) #0 comdat align 2 {
  %2 = alloca ptr, align 8
  store ptr %0, ptr %2, align 8, !tbaa !3
  %3 = load ptr, ptr %2, align 8
  %4 = getelementptr inbounds nuw %"class.icu_77::double_conversion::Bignum", ptr %3, i32 0, i32 0
  store i16 0, ptr %4, align 4, !tbaa !12
  %5 = getelementptr inbounds nuw %"class.icu_77::double_conversion::Bignum", ptr %3, i32 0, i32 1
  store i16 0, ptr %5, align 2, !tbaa !14
  ret void
}

; Function Attrs: mustprogress uwtable
define void @_ZN6icu_7717double_conversion6Bignum19AssignDecimalStringENS0_6VectorIKcEE(ptr noundef nonnull align 4 dereferenceable(516) %0, ptr %1, i32 %2) #1 align 2 {
  %4 = alloca %"class.icu_77::double_conversion::Vector", align 8
  %5 = alloca ptr, align 8
  %6 = alloca i32, align 4
  %7 = alloca i32, align 4
  %8 = alloca i64, align 8
  %9 = alloca %"class.icu_77::double_conversion::Vector", align 8
  %10 = alloca i64, align 8
  %11 = alloca %"class.icu_77::double_conversion::Vector", align 8
  %12 = getelementptr inbounds nuw { ptr, i32 }, ptr %4, i32 0, i32 0
  store ptr %1, ptr %12, align 8
  %13 = getelementptr inbounds nuw { ptr, i32 }, ptr %4, i32 0, i32 1
  store i32 %2, ptr %13, align 8
  store ptr %0, ptr %5, align 8, !tbaa !3
  %14 = load ptr, ptr %5, align 8
  call void @_ZN6icu_7717double_conversion6Bignum4ZeroEv(ptr noundef nonnull align 4 dereferenceable(516) %14)
  call void @llvm.lifetime.start.p0(i64 4, ptr %6) #6
  %15 = call noundef i32 @_ZNK6icu_7717double_conversion6VectorIKcE6lengthEv(ptr noundef nonnull align 8 dereferenceable(12) %4)
  store i32 %15, ptr %6, align 4, !tbaa !8
  call void @llvm.lifetime.start.p0(i64 4, ptr %7) #6
  store i32 0, ptr %7, align 4, !tbaa !8
  br label %16

16:                                               ; preds = %19, %3
  %17 = load i32, ptr %6, align 4, !tbaa !8
  %18 = icmp sge i32 %17, 19
  br i1 %18, label %19, label %31

19:                                               ; preds = %16
  call void @llvm.lifetime.start.p0(i64 8, ptr %8) #6
  call void @llvm.memcpy.p0.p0.i64(ptr align 8 %9, ptr align 8 %4, i64 16, i1 false), !tbaa.struct !20
  %20 = load i32, ptr %7, align 4, !tbaa !8
  %21 = getelementptr inbounds nuw { ptr, i32 }, ptr %9, i32 0, i32 0
  %22 = load ptr, ptr %21, align 8
  %23 = getelementptr inbounds nuw { ptr, i32 }, ptr %9, i32 0, i32 1
  %24 = load i32, ptr %23, align 8
  %25 = call noundef i64 @_ZN6icu_7717double_conversionL10ReadUInt64ENS0_6VectorIKcEEii(ptr %22, i32 %24, i32 noundef %20, i32 noundef 19)
  store i64 %25, ptr %8, align 8, !tbaa !15
  %26 = load i32, ptr %7, align 4, !tbaa !8
  %27 = add i32 %26, 19
  store i32 %27, ptr %7, align 4, !tbaa !8
  %28 = load i32, ptr %6, align 4, !tbaa !8
  %29 = sub nsw i32 %28, 19
  store i32 %29, ptr %6, align 4, !tbaa !8
  call void @_ZN6icu_7717double_conversion6Bignum20MultiplyByPowerOfTenEi(ptr noundef nonnull align 4 dereferenceable(516) %14, i32 noundef 19)
  %30 = load i64, ptr %8, align 8, !tbaa !15
  call void @_ZN6icu_7717double_conversion6Bignum9AddUInt64Em(ptr noundef nonnull align 4 dereferenceable(516) %14, i64 noundef %30)
  call void @llvm.lifetime.end.p0(i64 8, ptr %8) #6
  br label %16, !llvm.loop !23

31:                                               ; preds = %16
  call void @llvm.lifetime.start.p0(i64 8, ptr %10) #6
  call void @llvm.memcpy.p0.p0.i64(ptr align 8 %11, ptr align 8 %4, i64 16, i1 false), !tbaa.struct !20
  %32 = load i32, ptr %7, align 4, !tbaa !8
  %33 = load i32, ptr %6, align 4, !tbaa !8
  %34 = getelementptr inbounds nuw { ptr, i32 }, ptr %11, i32 0, i32 0
  %35 = load ptr, ptr %34, align 8
  %36 = getelementptr inbounds nuw { ptr, i32 }, ptr %11, i32 0, i32 1
  %37 = load i32, ptr %36, align 8
  %38 = call noundef i64 @_ZN6icu_7717double_conversionL10ReadUInt64ENS0_6VectorIKcEEii(ptr %35, i32 %37, i32 noundef %32, i32 noundef %33)
  store i64 %38, ptr %10, align 8, !tbaa !15
  %39 = load i32, ptr %6, align 4, !tbaa !8
  call void @_ZN6icu_7717double_conversion6Bignum20MultiplyByPowerOfTenEi(ptr noundef nonnull align 4 dereferenceable(516) %14, i32 noundef %39)
  %40 = load i64, ptr %10, align 8, !tbaa !15
  call void @_ZN6icu_7717double_conversion6Bignum9AddUInt64Em(ptr noundef nonnull align 4 dereferenceable(516) %14, i64 noundef %40)
  call void @_ZN6icu_7717double_conversion6Bignum5ClampEv(ptr noundef nonnull align 4 dereferenceable(516) %14)
  call void @llvm.lifetime.end.p0(i64 8, ptr %10) #6
  call void @llvm.lifetime.end.p0(i64 4, ptr %7) #6
  call void @llvm.lifetime.end.p0(i64 4, ptr %6) #6
  ret void
}